(lp0
I81253
aI423245
aI82777
aI83674
aI414389
aI82255
aI475545
aI82716
aI486911
aI473116
aI82405
aI423655
aI495737
aI148475
aI479868
aI428018
aI454128
aI758055
aI722888
aI468187
aI508768
aI500377
aI764391
aI670949
aI453320
aI82051
aI82052
aI168429
aI467777
aI509451
aI727179
aI145774
aI638815
aI502959
aI686283
aI502648
aI523006
aI493906
aI147377
a.