(dp0
VCON-LA009
p1
I1
sVCON-LA108
p2
I0
sVCON-LA104
p3
I1
sVCON-LA106
p4
I0
sVCON-LA107
p5
I1
sVCON289
p6
I0
sVCON326
p7
I0
sVCON325
p8
I0
sVCON344
p9
I1
sVCON281
p10
I0
sVCON328
p11
I1
sVCON285
p12
I1
sVCON286
p13
I0
sVCON459
p14
I0
sVCON458
p15
I0
sVCON517
p16
I1
sVCON518
p17
I0
sVCON450
p18
I1
sVCON453
p19
I1
sVCON452
p20
I1
sVCON454
p21
I0
sVCON-LA131
p22
I0
sVCON-LA130
p23
I1
sVCON-LA070
p24
I1
sVCON-LA178
p25
I0
sVCON-LA076
p26
I0
sVCON-LA078
p27
I0
sVCON-LA170
p28
I1
sVCON-LA172
p29
I1
sVCON-LA175
p30
I1
sVCON-LA174
p31
I1
sVCON604
p32
I0
sVCON354
p33
I1
sVCON600
p34
I0
sVCON602
p35
I0
sVCON218
p36
I0
sVCON216
p37
I1
sVCON215
p38
I0
sVCON214
p39
I0
sVCON213
p40
I1
sVCON609
p41
I1
sVCON211
p42
I1
sVCON210
p43
I0
sVCON109
p44
I0
sVCON108
p45
I0
sVCON102
p46
I1
sVCON101
p47
I0
sVCON100
p48
I0
sVCON107
p49
I1
sVCON105
p50
I0
sVCON104
p51
I1
sVCON088
p52
I0
sVCON283
p53
I1
sVCON421
p54
I1
sVCON082
p55
I0
sVCON083
p56
I1
sVCON080
p57
I0
sVCON086
p58
I1
sVCON087
p59
I1
sVCON085
p60
I1
sVCON077
p61
I0
sVCON076
p62
I0
sVCON075
p63
I0
sVCON073
p64
I1
sVCON072
p65
I1
sVCON071
p66
I1
sVCON178
p67
I0
sVCON176
p68
I0
sVCON177
p69
I1
sVCON174
p70
I1
sVCON175
p71
I0
sVCON173
p72
I0
sVCON171
p73
I1
sVCON-LA034
p74
I1
sVCON-LA036
p75
I0
sVCON-LA030
p76
I0
sVCON-LA031
p77
I0
sVCON-LA032
p78
I1
sVCON-LA135
p79
I0
sVCON252
p80
I1
sVCON-LA136
p81
I1
sVCON257
p82
I0
sVCON256
p83
I0
sVCON-LA133
p84
I1
sVCON259
p85
I1
sVCON318
p86
I1
sVCON317
p87
I1
sVCON314
p88
I0
sVCON420
p89
I1
sVCON510
p90
I1
sVCON423
p91
I0
sVCON424
p92
I1
sVCON425
p93
I1
sVCON427
p94
I1
sVCON428
p95
I1
sVCON-LA049
p96
I1
sVCON-LA041
p97
I1
sVCON-LA042
p98
I0
sVCON-LA045
p99
I1
sVCON226
p100
I0
sVCON227
p101
I1
sVCON224
p102
I1
sVCON557
p103
I1
sVCON499
p104
I1
sVCON223
p105
I1
sVCON220
p106
I1
sVCON519
p107
I0
sVCON497
p108
I0
sVCON496
p109
I0
sVCON491
p110
I1
sVCON493
p111
I0
sVCON461
p112
I0
sVCON062
p113
I1
sVCON-LA182
p114
I0
sVCON132
p115
I0
sVCON133
p116
I0
sVCON039
p117
I1
sVCON038
p118
I0
sVCON136
p119
I1
sVCON137
p120
I0
sVCON134
p121
I1
sVCON555
p122
I0
sVCON033
p123
I1
sVCON030
p124
I1
sVCON556
p125
I1
sVCON035
p126
I1
sVCON225
p127
I0
sVCON222
p128
I1
sVCON552
p129
I0
sVCON296
p130
I0
sVCON295
p131
I1
sVCON293
p132
I1
sVCON290
p133
I0
sVCON299
p134
I1
sVCON298
p135
I1
sVCON-LA171
p136
I1
sVCON048
p137
I1
sVCON049
p138
I0
sVCON046
p139
I1
sVCON047
p140
I1
sVCON044
p141
I0
sVCON045
p142
I0
sVCON043
p143
I0
sVCON040
p144
I0
sVCON509
p145
I1
sVCON508
p146
I0
sVCON507
p147
I0
sVCON505
p148
I0
sVCON502
p149
I1
sVCON500
p150
I1
sVCON-LA005
p151
I0
sVCON-LA007
p152
I0
sVCON-LA169
p153
I0
sVCON-LA001
p154
I0
sVCON-LA003
p155
I1
sVCON-LA002
p156
I1
sVCON-LA162
p157
I1
sVCON-LA163
p158
I0
sVCON-LA160
p159
I1
sVCON-LA161
p160
I0
sVCON-LA166
p161
I0
sVCON-LA165
p162
I1
sVCON598
p163
I0
sVCON599
p164
I0
sVCON610
p165
I1
sVCON342
p166
I0
sVCON591
p167
I1
sVCON261
p168
I0
sVCON219
p169
I1
sVCON212
p170
I1
sVCON464
p171
I0
sVCON465
p172
I0
sVCON466
p173
I0
sVCON554
p174
I0
sVCON358
p175
I1
sVCON462
p176
I1
sVCON463
p177
I0
sVCON359
p178
I1
sVCON0000
p179
I0
sVCON098
p180
I1
sVCON091
p181
I1
sVCON093
p182
I1
sVCON095
p183
I1
sVCON097
p184
I0
sVCON096
p185
I1
sVCON396
p186
I0
sVCON394
p187
I1
sVCON395
p188
I0
sVCON398
p189
I1
sVCON399
p190
I0
sVCON003
p191
I0
sVCON000
p192
I1
sVCON006
p193
I1
sVCON007
p194
I1
sVCON005
p195
I1
sVCON008
p196
I0
sVCON168
p197
I1
sVCON164
p198
I1
sVCON167
p199
I1
sVCON160
p200
I1
sVCON162
p201
I0
sVCON-LA124
p202
I1
sVCON-LA125
p203
I1
sVCON-LA121
p204
I1
sVCON-LA128
p205
I1
sVCON-LA129
p206
I1
sVCON309
p207
I1
sVCON304
p208
I1
sVCON306
p209
I0
sVCON534
p210
I0
sVCON535
p211
I0
sVCON532
p212
I0
sVCON439
p213
I1
sVCON437
p214
I1
sVCON436
p215
I0
sVCON435
p216
I1
sVCON432
p217
I0
sVCON431
p218
I1
sVCON430
p219
I0
sVCON-LA058
p220
I0
sVCON-LA059
p221
I1
sVCON-LA050
p222
I1
sVCON-LA051
p223
I1
sVCON-LA054
p224
I0
sVCON-LA055
p225
I1
sVCON543
p226
I0
sVCON542
p227
I1
sVCON547
p228
I0
sVCON545
p229
I0
sVCON232
p230
I1
sVCON548
p231
I1
sVCON239
p232
I0
sVCON238
p233
I1
sVCON449
p234
I0
sVCON058
p235
I1
sVCON529
p236
I1
sVCON121
p237
I1
sVCON122
p238
I0
sVCON125
p239
I0
sVCON124
p240
I1
sVCON127
p241
I0
sVCON126
p242
I1
sVCON198
p243
I1
sVCON199
p244
I0
sVCON-LA089
p245
I0
sVCON-LA088
p246
I1
sVCON-LA084
p247
I1
sVCON-LA087
p248
I1
sVCON-LA080
p249
I1
sVCON197
p250
I1
sVCON191
p251
I0
sVCON193
p252
I0
sVCON055
p253
I0
sVCON054
p254
I1
sVCON057
p255
I1
sVCON056
p256
I1
sVCON051
p257
I1
sVCON050
p258
I0
sVCON053
p259
I1
sVCON579
p260
I0
sVCON571
p261
I0
sVCON-LA016
p262
I0
sVCON586
p263
I1
sVCON-LA014
p264
I0
sVCON584
p265
I0
sVCON-LA012
p266
I1
sVCON582
p267
I0
sVCON-LA010
p268
I0
sVCON-LA158
p269
I0
sVCON-LA156
p270
I0
sVCON-LA152
p271
I1
sVCON-LA018
p272
I1
sVCON-LA150
p273
I0
sVCON279
p274
I1
sVCON371
p275
I0
sVCON378
p276
I0
sVCON379
p277
I1
sVCON274
p278
I1
sVCON276
p279
I1
sVCON036
p280
I1
sVCON470
p281
I1
sVCON477
p282
I0
sVCON585
p283
I1
sVCON-LA015
p284
I0
sVCON-LA013
p285
I1
sVCON581
p286
I0
sVCON580
p287
I1
sVCON381
p288
I1
sVCON380
p289
I1
sVCON-LA202
p290
I0
sVCON-LA019
p291
I1
sVCON013
p292
I0
sVCON015
p293
I1
sVCON014
p294
I0
sVCON017
p295
I0
sVCON016
p296
I1
sVCON019
p297
I0
sVCON018
p298
I1
sVCON158
p299
I0
sVCON159
p300
I1
sVCON150
p301
I0
sVCON152
p302
I1
sVCON153
p303
I0
sVCON155
p304
I1
sVCON156
p305
I0
sVCON157
p306
I0
sVCON-LA119
p307
I1
sVCON-LA118
p308
I0
sVCON-LA112
p309
I1
sVCON-LA111
p310
I1
sVCON-LA117
p311
I1
sVCON-LA114
p312
I0
sVCON334
p313
I1
sVCON331
p314
I0
sVCON332
p315
I0
sVCON333
p316
I0
sVCON339
p317
I1
sVCON526
p318
I0
sVCON522
p319
I1
sVCON443
p320
I0
sVCON440
p321
I1
sVCON441
p322
I0
sVCON446
p323
I0
sVCON528
p324
I1
sVCON445
p325
I1
sVCON-LA066
p326
I1
sVCON-LA063
p327
I1
sVCON200
p328
I0
sVCON201
p329
I1
sVCON202
p330
I1
sVCON203
p331
I1
sVCON204
p332
I1
sVCON206
p333
I1
sVCON207
p334
I0
sVCON208
p335
I1
sVCON119
p336
I0
sVCON116
p337
I0
sVCON117
p338
I1
sVCON110
p339
I1
sVCON111
p340
I1
sVCON112
p341
I0
sVCON113
p342
I0
sVCON-LA099
p343
I0
sVCON-LA096
p344
I1
sVCON-LA097
p345
I1
sVCON-LA090
p346
I1
sVCON-LA091
p347
I0
sVCON539
p348
I0
sVCON183
p349
I1
sVCON182
p350
I1
sVCON180
p351
I0
sVCON184
p352
I0
sVCON060
p353
I1
sVCON189
p354
I0
sVCON188
p355
I0
sVCON065
p356
I0
sVCON066
p357
I0
sVCON067
p358
I1
sVCON569
p359
I1
sVCON561
p360
I0
sVCON560
p361
I0
sVCON563
p362
I1
sVCON564
p363
I1
sVCON566
p364
I1
sVCON-LA022
p365
I1
sVCON-LA021
p366
I1
sVCON-LA027
p367
I0
sVCON-LA026
p368
I0
sVCON245
p369
I1
sVCON246
p370
I0
sVCON-LA143
p371
I1
sVCON-LA144
p372
I0
sVCON242
p373
I1
sVCON-LA147
p374
I1
sVCON249
p375
I0
sVCON365
p376
I0
sVCON364
p377
I1
sVCON417
p378
I0
sVCON410
p379
I0
sVCON413
p380
I0
sVCON412
p381
I0
sVCON143
p382
I0
sVCON142
p383
I0
sVCON488
p384
I0
sVCON489
p385
I1
sVCON486
p386
I0
sVCON487
p387
I0
sVCON482
p388
I1
sVCON480
p389
I1
sVCON022
p390
I1
sVCON023
p391
I0
sVCON511
p392
I0
sVCON234
p393
I1
sVCON233
p394
I0
sVCON-LA195
p395
I0
sVCON544
p396
I0
sVCON-LA168
p397
I0
sVCON-LA006
p398
I0
sVCON146
p399
I0
sVCON144
p400
I0
sVCON028
p401
I1
sVCON029
p402
I1
sVCON141
p403
I0
sVCON026
p404
I0
sVCON027
p405
I1
sVCON020
p406
I1
sVCON021
p407
I0
sVCON149
p408
I1
sVCON148
p409
I1
sVCON451
p410
I1
s.